; ModuleID = '56/554.c'
source_filename = "56/554.c"
target datalayout = "e-m:e-p270:32:32-p271:32:32-p272:64:64-i64:64-f80:128-n8:16:32:64-S128"
target triple = "x86_64-pc-linux-gnu"

@.str = private unnamed_addr constant [3 x i8] c"%d\00", align 1
@.str.1 = private unnamed_addr constant [9 x i8] c"%d%d%d%d\00", align 1
@.str.2 = private unnamed_addr constant [7 x i8] c"%d%d%d\00", align 1
@.str.3 = private unnamed_addr constant [5 x i8] c"%d%d\00", align 1
@.str.4 = private unnamed_addr constant [11 x i8] c"%d%d%d%d%d\00", align 1
@.str.5 = private unnamed_addr constant [14 x i8] c"I don't know!\00", align 1

; Function Attrs: noinline nounwind uwtable
define dso_local i32 @main() #0 {
  %1 = alloca i32, align 4
  %2 = alloca i32, align 4
  %3 = alloca i32, align 4
  %4 = alloca i32, align 4
  %5 = alloca i32, align 4
  %6 = alloca i32, align 4
  %7 = alloca i32, align 4
  store i32 0, i32* %1, align 4
  %8 = call i32 (i8*, ...) @__isoc99_scanf(i8* getelementptr inbounds ([3 x i8], [3 x i8]* @.str, i64 0, i64 0), i32* %2)
  %9 = load i32, i32* %2, align 4
  %10 = sdiv i32 %9, 10000
  store i32 %10, i32* %3, align 4
  %11 = load i32, i32* %2, align 4
  %12 = load i32, i32* %3, align 4
  %13 = mul nsw i32 10000, %12
  %14 = sub nsw i32 %11, %13
  %15 = sdiv i32 %14, 1000
  store i32 %15, i32* %4, align 4
  %16 = load i32, i32* %2, align 4
  %17 = load i32, i32* %3, align 4
  %18 = mul nsw i32 10000, %17
  %19 = sub nsw i32 %16, %18
  %20 = load i32, i32* %4, align 4
  %21 = mul nsw i32 1000, %20
  %22 = sub nsw i32 %19, %21
  %23 = sdiv i32 %22, 100
  store i32 %23, i32* %5, align 4
  %24 = load i32, i32* %2, align 4
  %25 = load i32, i32* %3, align 4
  %26 = mul nsw i32 10000, %25
  %27 = sub nsw i32 %24, %26
  %28 = load i32, i32* %4, align 4
  %29 = mul nsw i32 1000, %28
  %30 = sub nsw i32 %27, %29
  %31 = load i32, i32* %5, align 4
  %32 = mul nsw i32 100, %31
  %33 = sub nsw i32 %30, %32
  %34 = sdiv i32 %33, 10
  store i32 %34, i32* %6, align 4
  %35 = load i32, i32* %2, align 4
  %36 = srem i32 %35, 10
  store i32 %36, i32* %7, align 4
  %37 = load i32, i32* %3, align 4
  %38 = icmp eq i32 %37, 0
  br i1 %38, label %39, label %57

39:                                               ; preds = %0
  %40 = load i32, i32* %4, align 4
  %41 = icmp ne i32 %40, 0
  br i1 %41, label %42, label %57

42:                                               ; preds = %39
  %43 = load i32, i32* %5, align 4
  %44 = icmp ne i32 %43, 0
  br i1 %44, label %45, label %57

45:                                               ; preds = %42
  %46 = load i32, i32* %6, align 4
  %47 = icmp ne i32 %46, 0
  br i1 %47, label %48, label %57

48:                                               ; preds = %45
  %49 = load i32, i32* %7, align 4
  %50 = icmp ne i32 %49, 0
  br i1 %50, label %51, label %57

51:                                               ; preds = %48
  %52 = load i32, i32* %7, align 4
  %53 = load i32, i32* %6, align 4
  %54 = load i32, i32* %5, align 4
  %55 = load i32, i32* %4, align 4
  %56 = call i32 (i8*, ...) @printf(i8* getelementptr inbounds ([9 x i8], [9 x i8]* @.str.1, i64 0, i64 0), i32 %52, i32 %53, i32 %54, i32 %55)
  br label %142

57:                                               ; preds = %48, %45, %42, %39, %0
  %58 = load i32, i32* %3, align 4
  %59 = icmp eq i32 %58, 0
  br i1 %59, label %60, label %77

60:                                               ; preds = %57
  %61 = load i32, i32* %4, align 4
  %62 = icmp eq i32 %61, 0
  br i1 %62, label %63, label %77

63:                                               ; preds = %60
  %64 = load i32, i32* %5, align 4
  %65 = icmp ne i32 %64, 0
  br i1 %65, label %66, label %77

66:                                               ; preds = %63
  %67 = load i32, i32* %6, align 4
  %68 = icmp ne i32 %67, 0
  br i1 %68, label %69, label %77

69:                                               ; preds = %66
  %70 = load i32, i32* %7, align 4
  %71 = icmp ne i32 %70, 0
  br i1 %71, label %72, label %77

72:                                               ; preds = %69
  %73 = load i32, i32* %7, align 4
  %74 = load i32, i32* %6, align 4
  %75 = load i32, i32* %5, align 4
  %76 = call i32 (i8*, ...) @printf(i8* getelementptr inbounds ([7 x i8], [7 x i8]* @.str.2, i64 0, i64 0), i32 %73, i32 %74, i32 %75)
  br label %141

77:                                               ; preds = %69, %66, %63, %60, %57
  %78 = load i32, i32* %3, align 4
  %79 = icmp eq i32 %78, 0
  br i1 %79, label %80, label %96

80:                                               ; preds = %77
  %81 = load i32, i32* %4, align 4
  %82 = icmp eq i32 %81, 0
  br i1 %82, label %83, label %96

83:                                               ; preds = %80
  %84 = load i32, i32* %5, align 4
  %85 = icmp eq i32 %84, 0
  br i1 %85, label %86, label %96

86:                                               ; preds = %83
  %87 = load i32, i32* %6, align 4
  %88 = icmp ne i32 %87, 0
  br i1 %88, label %89, label %96

89:                                               ; preds = %86
  %90 = load i32, i32* %7, align 4
  %91 = icmp ne i32 %90, 0
  br i1 %91, label %92, label %96

92:                                               ; preds = %89
  %93 = load i32, i32* %7, align 4
  %94 = load i32, i32* %6, align 4
  %95 = call i32 (i8*, ...) @printf(i8* getelementptr inbounds ([5 x i8], [5 x i8]* @.str.3, i64 0, i64 0), i32 %93, i32 %94)
  br label %140

96:                                               ; preds = %89, %86, %83, %80, %77
  %97 = load i32, i32* %3, align 4
  %98 = icmp eq i32 %97, 0
  br i1 %98, label %99, label %114

99:                                               ; preds = %96
  %100 = load i32, i32* %4, align 4
  %101 = icmp eq i32 %100, 0
  br i1 %101, label %102, label %114

102:                                              ; preds = %99
  %103 = load i32, i32* %5, align 4
  %104 = icmp eq i32 %103, 0
  br i1 %104, label %105, label %114

105:                                              ; preds = %102
  %106 = load i32, i32* %6, align 4
  %107 = icmp eq i32 %106, 0
  br i1 %107, label %108, label %114

108:                                              ; preds = %105
  %109 = load i32, i32* %7, align 4
  %110 = icmp ne i32 %109, 0
  br i1 %110, label %111, label %114

111:                                              ; preds = %108
  %112 = load i32, i32* %7, align 4
  %113 = call i32 (i8*, ...) @printf(i8* getelementptr inbounds ([3 x i8], [3 x i8]* @.str, i64 0, i64 0), i32 %112)
  br label %139

114:                                              ; preds = %108, %105, %102, %99, %96
  %115 = load i32, i32* %3, align 4
  %116 = icmp ne i32 %115, 0
  br i1 %116, label %117, label %136

117:                                              ; preds = %114
  %118 = load i32, i32* %4, align 4
  %119 = icmp ne i32 %118, 0
  br i1 %119, label %120, label %136

120:                                              ; preds = %117
  %121 = load i32, i32* %5, align 4
  %122 = icmp ne i32 %121, 0
  br i1 %122, label %123, label %136

123:                                              ; preds = %120
  %124 = load i32, i32* %6, align 4
  %125 = icmp ne i32 %124, 0
  br i1 %125, label %126, label %136

126:                                              ; preds = %123
  %127 = load i32, i32* %7, align 4
  %128 = icmp ne i32 %127, 0
  br i1 %128, label %129, label %136

129:                                              ; preds = %126
  %130 = load i32, i32* %7, align 4
  %131 = load i32, i32* %6, align 4
  %132 = load i32, i32* %5, align 4
  %133 = load i32, i32* %4, align 4
  %134 = load i32, i32* %3, align 4
  %135 = call i32 (i8*, ...) @printf(i8* getelementptr inbounds ([11 x i8], [11 x i8]* @.str.4, i64 0, i64 0), i32 %130, i32 %131, i32 %132, i32 %133, i32 %134)
  br label %138

136:                                              ; preds = %126, %123, %120, %117, %114
  %137 = call i32 (i8*, ...) @printf(i8* getelementptr inbounds ([14 x i8], [14 x i8]* @.str.5, i64 0, i64 0))
  br label %138

138:                                              ; preds = %136, %129
  br label %139

139:                                              ; preds = %138, %111
  br label %140

140:                                              ; preds = %139, %92
  br label %141

141:                                              ; preds = %140, %72
  br label %142

142:                                              ; preds = %141, %51
  ret i32 0
}

declare dso_local i32 @__isoc99_scanf(i8*, ...) #1

declare dso_local i32 @printf(i8*, ...) #1


!llvm.module.flags = !{!0}
!llvm.ident = !{!1}

!0 = !{i32 1, !"wchar_size", i32 4}
!1 = !{!"clang version 10.0.0-4ubuntu1 "}
