; ModuleID = 'source-C-CXX/55/554.c'
source_filename = "source-C-CXX/55/554.c"
target datalayout = "e-m:e-p270:32:32-p271:32:32-p272:64:64-i64:64-f80:128-n8:16:32:64-S128"
target triple = "x86_64-pc-linux-gnu"

@.str = private unnamed_addr constant [3 x i8] c"%d\00", align 1
@.str.1 = private unnamed_addr constant [9 x i8] c"%d%d%d%d\00", align 1
@.str.2 = private unnamed_addr constant [7 x i8] c"%d%d%d\00", align 1
@.str.3 = private unnamed_addr constant [5 x i8] c"%d%d\00", align 1
@.str.4 = private unnamed_addr constant [11 x i8] c"%d%d%d%d%d\00", align 1
@.str.5 = private unnamed_addr constant [14 x i8] c"I don't know!\00", align 1

; Function Attrs: nofree nounwind sspstrong uwtable
define dso_local i32 @main() local_unnamed_addr #0 {
  %1 = alloca i32, align 4
  %2 = bitcast i32* %1 to i8*
  call void @llvm.lifetime.start.p0i8(i64 4, i8* nonnull %2) #3
  %3 = call i32 (i8*, ...) @__isoc99_scanf(i8* getelementptr inbounds ([3 x i8], [3 x i8]* @.str, i64 0, i64 0), i32* nonnull %1)
  %4 = load i32, i32* %1, align 4, !tbaa !5
  %5 = sdiv i32 %4, 10000
  %6 = mul nsw i32 %5, -10000
  %7 = add i32 %6, %4
  %8 = sdiv i32 %7, 1000
  %9 = mul nsw i32 %8, -1000
  %10 = add i32 %9, %7
  %11 = sdiv i32 %10, 100
  %12 = mul nsw i32 %11, -100
  %13 = add i32 %12, %10
  %14 = sdiv i32 %13, 10
  %15 = srem i32 %4, 10
  %16 = add i32 %4, 9999
  %17 = icmp ult i32 %16, 19999
  %18 = add i32 %7, 999
  %19 = icmp ugt i32 %18, 1998
  %20 = select i1 %17, i1 %19, i1 false
  %21 = add i32 %10, 99
  %22 = icmp ugt i32 %21, 198
  %23 = select i1 %20, i1 %22, i1 false
  %24 = add i32 %13, 9
  %25 = icmp ugt i32 %24, 18
  %26 = select i1 %23, i1 %25, i1 false
  %27 = icmp ne i32 %15, 0
  %28 = select i1 %26, i1 %27, i1 false
  br i1 %28, label %29, label %31

29:                                               ; preds = %0
  %30 = call i32 (i8*, ...) @printf(i8* nonnull dereferenceable(1) getelementptr inbounds ([9 x i8], [9 x i8]* @.str.1, i64 0, i64 0), i32 %15, i32 %14, i32 %11, i32 %8)
  br label %62

31:                                               ; preds = %0
  %32 = icmp ult i32 %18, 1999
  %33 = select i1 %17, i1 %32, i1 false
  %34 = select i1 %33, i1 %22, i1 false
  %35 = select i1 %34, i1 %25, i1 false
  %36 = select i1 %35, i1 %27, i1 false
  br i1 %36, label %37, label %39

37:                                               ; preds = %31
  %38 = call i32 (i8*, ...) @printf(i8* nonnull dereferenceable(1) getelementptr inbounds ([7 x i8], [7 x i8]* @.str.2, i64 0, i64 0), i32 %15, i32 %14, i32 %11)
  br label %62

39:                                               ; preds = %31
  %40 = icmp ult i32 %21, 199
  %41 = select i1 %33, i1 %40, i1 false
  %42 = select i1 %41, i1 %25, i1 false
  %43 = select i1 %42, i1 %27, i1 false
  br i1 %43, label %44, label %46

44:                                               ; preds = %39
  %45 = call i32 (i8*, ...) @printf(i8* nonnull dereferenceable(1) getelementptr inbounds ([5 x i8], [5 x i8]* @.str.3, i64 0, i64 0), i32 %15, i32 %14)
  br label %62

46:                                               ; preds = %39
  %47 = icmp ult i32 %24, 19
  %48 = select i1 %41, i1 %47, i1 false
  %49 = select i1 %48, i1 %27, i1 false
  br i1 %49, label %50, label %52

50:                                               ; preds = %46
  %51 = call i32 (i8*, ...) @printf(i8* nonnull dereferenceable(1) getelementptr inbounds ([3 x i8], [3 x i8]* @.str, i64 0, i64 0), i32 %15)
  br label %62

52:                                               ; preds = %46
  %53 = icmp ugt i32 %16, 19998
  %54 = select i1 %53, i1 %19, i1 false
  %55 = select i1 %54, i1 %22, i1 false
  %56 = select i1 %55, i1 %25, i1 false
  %57 = select i1 %56, i1 %27, i1 false
  br i1 %57, label %58, label %60

58:                                               ; preds = %52
  %59 = call i32 (i8*, ...) @printf(i8* nonnull dereferenceable(1) getelementptr inbounds ([11 x i8], [11 x i8]* @.str.4, i64 0, i64 0), i32 %15, i32 %14, i32 %11, i32 %8, i32 %5)
  br label %62

60:                                               ; preds = %52
  %61 = call i32 (i8*, ...) @printf(i8* nonnull dereferenceable(1) getelementptr inbounds ([14 x i8], [14 x i8]* @.str.5, i64 0, i64 0))
  br label %62

62:                                               ; preds = %37, %50, %60, %58, %44, %29
  call void @llvm.lifetime.end.p0i8(i64 4, i8* nonnull %2) #3
  ret i32 0
}

; Function Attrs: argmemonly mustprogress nofree nosync nounwind willreturn
declare void @llvm.lifetime.start.p0i8(i64 immarg, i8* nocapture) #1

; Function Attrs: nofree nounwind
declare noundef i32 @__isoc99_scanf(i8* nocapture noundef readonly, ...) local_unnamed_addr #2

; Function Attrs: nofree nounwind
declare noundef i32 @printf(i8* nocapture noundef readonly, ...) local_unnamed_addr #2

; Function Attrs: argmemonly mustprogress nofree nosync nounwind willreturn
declare void @llvm.lifetime.end.p0i8(i64 immarg, i8* nocapture) #1


!llvm.module.flags = !{!0, !1, !2, !3}
!llvm.ident = !{!4}

!0 = !{i32 1, !"wchar_size", i32 4}
!1 = !{i32 7, !"PIC Level", i32 2}
!2 = !{i32 7, !"PIE Level", i32 2}
!3 = !{i32 7, !"uwtable", i32 1}
!4 = !{!"clang version 13.0.0"}
!5 = !{!6, !6, i64 0}
!6 = !{!"int", !7, i64 0}
!7 = !{!"omnipotent char", !8, i64 0}
!8 = !{!"Simple C/C++ TBAA"}
